; Function Attrs: mustprogress nounwind uwtable
define dso_local void @_ZN4node12shadow_realm11ShadowRealmD2Ev(ptr noundef nonnull align 8 dereferenceable(872) %this) unnamed_addr #3 align 2 {
entry:
  %handle_scope = alloca %"class.v8::HandleScope", align 8
  store ptr getelementptr inbounds ({ [132 x ptr] }, ptr @_ZTVN4node12shadow_realm11ShadowRealmE, i64 0, i32 0, i64 2), ptr %this, align 8
  %_M_element_count.i.i.i.i.i = getelementptr inbounds i8, ptr %this, i64 832
  %0 = load i64, ptr %_M_element_count.i.i.i.i.i, align 8
  %cmp.i.i.i.i.not1 = icmp eq i64 %0, 0
  br i1 %cmp.i.i.i.i.not1, label %while.end, label %while.body

while.body:                                       ; preds = %entry, %while.body
  tail call void @_ZN4node5Realm10RunCleanupEv(ptr noundef nonnull align 8 dereferenceable(872) %this) #13
  %1 = load i64, ptr %_M_element_count.i.i.i.i.i, align 8
  %cmp.i.i.i.i.not = icmp eq i64 %1, 0
  br i1 %cmp.i.i.i.i.not, label %while.end, label %while.body, !llvm.loop !10

while.end:                                        ; preds = %while.body, %entry
  %env_ = getelementptr inbounds i8, ptr %this, i64 176
  %2 = load ptr, ptr %env_, align 8
  tail call void @_ZN4node11Environment18UntrackShadowRealmEPNS_12shadow_realm11ShadowRealmE(ptr noundef nonnull align 8 dereferenceable(2872) %2, ptr noundef nonnull %this) #13
  %context_ = getelementptr inbounds i8, ptr %this, i64 192
  %3 = load ptr, ptr %context_, align 8
  %cmp.i = icmp eq ptr %3, null
  br i1 %cmp.i, label %cleanup, label %if.end

if.end:                                           ; preds = %while.end
  %isolate_.i = getelementptr inbounds i8, ptr %this, i64 184
  %4 = load ptr, ptr %isolate_.i, align 8
  call void @_ZN2v811HandleScopeC1EPNS_7IsolateE(ptr noundef nonnull align 8 dereferenceable(24) %handle_scope, ptr noundef %4) #13
  %5 = load ptr, ptr %env_, align 8
  %vtable = load ptr, ptr %this, align 8
  %vfn = getelementptr inbounds i8, ptr %vtable, i64 64
  %6 = load ptr, ptr %vfn, align 8
  %call5 = call ptr %6(ptr noundef nonnull align 8 dereferenceable(872) %this) #13
  call void @_ZN4node11Environment19UnassignFromContextEN2v85LocalINS1_7ContextEEE(ptr noundef nonnull align 8 dereferenceable(2872) %5, ptr %call5) #13
  call void @_ZN2v811HandleScopeD1Ev(ptr noundef nonnull align 8 dereferenceable(24) %handle_scope) #13
  br label %cleanup

cleanup:                                          ; preds = %while.end, %if.end
  call void @_ZN4node5RealmD2Ev(ptr noundef nonnull align 8 dereferenceable(872) %this) #13
  ret void
}